target datalayout = "e-m:e-p270:32:32-p271:32:32-p272:64:64-i64:64-i128:128-f80:128-n8:16:32:64-S128"
target triple = "x86_64-pc-linux-gnu"

; Function Attrs: nounwind uwtable
define i64 @log2ceil(i64 noundef %0) #0 {
  %2 = alloca i64, align 8
  %3 = alloca i64, align 8
  store i64 %0, ptr %2, align 8
  store i64 0, ptr %3, align 8
  %4 = load i64, ptr %2, align 8
  %5 = sub i64 %4, 1
  store i64 %5, ptr %2, align 8
  br label %6

6:                                                ; preds = %12, %1
  %7 = load i64, ptr %2, align 8
  %8 = icmp ne i64 %7, 0
  br i1 %8, label %9, label %15

9:                                                ; preds = %6
  %10 = load i64, ptr %3, align 8
  %11 = add i64 %10, 1
  store i64 %11, ptr %3, align 8
  br label %12

12:                                               ; preds = %9
  %13 = load i64, ptr %2, align 8
  %14 = lshr i64 %13, 1
  store i64 %14, ptr %2, align 8
  br label %6, !llvm.loop !6

15:                                               ; preds = %6
  %16 = load i64, ptr %3, align 8
  ret i64 %16
}


!llvm.module.flags = !{!0, !1, !2, !3, !4, !5}

!0 = !{i32 7, !"Dwarf Version", i32 5}
!1 = !{i32 2, !"Debug Info Version", i32 3}
!2 = !{i32 1, !"wchar_size", i32 4}
!3 = !{i32 8, !"PIC Level", i32 2}
!4 = !{i32 7, !"uwtable", i32 2}
!5 = !{i32 7, !"frame-pointer", i32 2}
!6 = distinct !{!6, !7}
!7 = !{!"llvm.loop.mustprogress"}
