; ModuleID = 'bench/nuttx/original/lib_log2ceil.c.ll'
source_filename = "bench/nuttx/original/lib_log2ceil.c.ll"
target datalayout = "e-m:e-p270:32:32-p271:32:32-p272:64:64-i64:64-i128:128-f80:128-n8:16:32:64-S128"
target triple = "x86_64-pc-linux-gnu"

; Function Attrs: mustprogress nofree norecurse nosync nounwind willreturn memory(none) uwtable
define range(i64 0, 65) i64 @log2ceil(i64 noundef %0) local_unnamed_addr #0 {
._crit_edge:
  %1 = add i64 %0, -1
  %.not6 = icmp eq i64 %1, 0
  %2 = tail call range(i64 0, 65) i64 @llvm.ctlz.i64(i64 %1, i1 true)
  %3 = sub nuw nsw i64 64, %2
  %.0.lcssa = select i1 %.not6, i64 0, i64 %3
  ret i64 %.0.lcssa
}

; Function Attrs: nocallback nofree nosync nounwind speculatable willreturn memory(none)
declare i64 @llvm.ctlz.i64(i64, i1 immarg) #1


!llvm.module.flags = !{!0, !1, !2, !3, !4, !5}

!0 = !{i32 7, !"Dwarf Version", i32 5}
!1 = !{i32 2, !"Debug Info Version", i32 3}
!2 = !{i32 1, !"wchar_size", i32 4}
!3 = !{i32 8, !"PIC Level", i32 2}
!4 = !{i32 7, !"uwtable", i32 2}
!5 = !{i32 7, !"frame-pointer", i32 2}
